target datalayout = "e-m:e-p270:32:32-p271:32:32-p272:64:64-i64:64-i128:128-f80:128-n8:16:32:64-S128"
target triple = "x86_64-pc-linux-gnu"

%struct.pg_tz = type { [256 x i8], %struct.state }
%struct.state = type { i32, i32, i32, i32, i8, i8, [2000 x i64], [2000 x i8], [256 x %struct.ttinfo], [512 x i8], [50 x %struct.lsinfo], i32 }
%struct.ttinfo = type { i32, i8, i32, i8, i8 }
%struct.lsinfo = type { i64, i64 }

@pg_load_tz.tz = internal global %struct.pg_tz zeroinitializer, align 8
@.str.3 = private unnamed_addr constant [4 x i8] c"GMT\00", align 1

; Function Attrs: nounwind uwtable
define internal ptr @pg_load_tz(ptr noundef %0) #0 {
  %2 = alloca ptr, align 8
  %3 = alloca ptr, align 8
  store ptr %0, ptr %3, align 8
  %4 = load ptr, ptr %3, align 8
  %5 = call i64 @strlen(ptr noundef %4) #7
  %6 = icmp ugt i64 %5, 255
  br i1 %6, label %7, label %8

7:                                                ; preds = %1
  store ptr null, ptr %2, align 8
  br label %36

8:                                                ; preds = %1
  %9 = load ptr, ptr %3, align 8
  %10 = call i32 @strcmp(ptr noundef %9, ptr noundef @.str.3) #7
  %11 = icmp eq i32 %10, 0
  br i1 %11, label %12, label %17

12:                                               ; preds = %8
  %13 = load ptr, ptr %3, align 8
  %14 = call zeroext i1 @tzparse(ptr noundef %13, ptr noundef getelementptr inbounds nuw (%struct.pg_tz, ptr @pg_load_tz.tz, i32 0, i32 1), i1 noundef zeroext true)
  br i1 %14, label %16, label %15

15:                                               ; preds = %12
  store ptr null, ptr %2, align 8
  br label %36

16:                                               ; preds = %12
  br label %33

17:                                               ; preds = %8
  %18 = load ptr, ptr %3, align 8
  %19 = call i32 @tzload(ptr noundef %18, ptr noundef null, ptr noundef getelementptr inbounds nuw (%struct.pg_tz, ptr @pg_load_tz.tz, i32 0, i32 1), i1 noundef zeroext true)
  %20 = icmp ne i32 %19, 0
  br i1 %20, label %21, label %32

21:                                               ; preds = %17
  %22 = load ptr, ptr %3, align 8
  %23 = getelementptr inbounds i8, ptr %22, i64 0
  %24 = load i8, ptr %23, align 1
  %25 = sext i8 %24 to i32
  %26 = icmp eq i32 %25, 58
  br i1 %26, label %30, label %27

27:                                               ; preds = %21
  %28 = load ptr, ptr %3, align 8
  %29 = call zeroext i1 @tzparse(ptr noundef %28, ptr noundef getelementptr inbounds nuw (%struct.pg_tz, ptr @pg_load_tz.tz, i32 0, i32 1), i1 noundef zeroext false)
  br i1 %29, label %31, label %30

30:                                               ; preds = %27, %21
  store ptr null, ptr %2, align 8
  br label %36

31:                                               ; preds = %27
  br label %32

32:                                               ; preds = %31, %17
  br label %33

33:                                               ; preds = %32, %16
  %34 = load ptr, ptr %3, align 8
  %35 = call ptr @strcpy(ptr noundef @pg_load_tz.tz, ptr noundef %34) #6
  store ptr @pg_load_tz.tz, ptr %2, align 8
  br label %36

36:                                               ; preds = %33, %30, %15, %7
  %37 = load ptr, ptr %2, align 8
  ret ptr %37
}