; Function Attrs: nounwind uwtable
define internal fastcc noundef ptr @pg_load_tz(ptr noundef %0) unnamed_addr #5 {
  %2 = tail call i64 @strlen(ptr noundef nonnull dereferenceable(1) %0) #14
  %3 = icmp ugt i64 %2, 255
  br i1 %3, label %18, label %4

4:                                                ; preds = %1
  %5 = tail call i32 @strcmp(ptr noundef nonnull dereferenceable(1) %0, ptr noundef nonnull dereferenceable(4) @.str.3) #14
  %6 = icmp eq i32 %5, 0
  br i1 %6, label %7, label %9

7:                                                ; preds = %4
  %8 = tail call zeroext i1 @tzparse(ptr noundef nonnull %0, ptr noundef nonnull getelementptr inbounds nuw (i8, ptr @pg_load_tz.tz, i64 256), i1 noundef zeroext true) #13
  br i1 %8, label %16, label %18

9:                                                ; preds = %4
  %10 = tail call i32 @tzload(ptr noundef nonnull %0, ptr noundef null, ptr noundef nonnull getelementptr inbounds nuw (i8, ptr @pg_load_tz.tz, i64 256), i1 noundef zeroext true) #13
  %.not = icmp eq i32 %10, 0
  br i1 %.not, label %16, label %11

11:                                               ; preds = %9
  %12 = load i8, ptr %0, align 1
  %13 = icmp eq i8 %12, 58
  br i1 %13, label %18, label %14

14:                                               ; preds = %11
  %15 = tail call zeroext i1 @tzparse(ptr noundef nonnull %0, ptr noundef nonnull getelementptr inbounds nuw (i8, ptr @pg_load_tz.tz, i64 256), i1 noundef zeroext false) #13
  br i1 %15, label %16, label %18

16:                                               ; preds = %9, %14, %7
  %17 = tail call ptr @strcpy(ptr noundef nonnull dereferenceable(1) @pg_load_tz.tz, ptr noundef nonnull dereferenceable(1) %0) #13
  br label %18

18:                                               ; preds = %11, %14, %7, %1, %16
  %.0 = phi ptr [ @pg_load_tz.tz, %16 ], [ null, %1 ], [ null, %7 ], [ null, %14 ], [ null, %11 ]
  ret ptr %.0
}